target datalayout = "e-m:e-p270:32:32-p271:32:32-p272:64:64-i64:64-i128:128-f80:128-n8:16:32:64-S128"
target triple = "x86_64-pc-linux-gnu"

%struct.__loadu_ps = type { <4 x float> }
%struct.__storeu_ps = type { <4 x float> }
%struct.stbir__contributors = type { i32, i32 }
%struct.__mm_storel_epi64_struct = type { i64 }
%struct.__mm_load_ss_struct = type { float }
%struct.__mm_store_ss_struct = type { float }

; Function Attrs: alwaysinline nounwind uwtable
define available_externally void @_mm_store_ss(ptr noundef %0, <4 x float> noundef %1) #2 {
  %3 = alloca ptr, align 8
  %4 = alloca <4 x float>, align 16
  store ptr %0, ptr %3, align 8, !tbaa !21
  store <4 x float> %1, ptr %4, align 16, !tbaa !12
  %5 = load <4 x float>, ptr %4, align 16, !tbaa !12
  %6 = extractelement <4 x float> %5, i32 0
  %7 = load ptr, ptr %3, align 8, !tbaa !21
  %8 = getelementptr inbounds nuw %struct.__mm_store_ss_struct, ptr %7, i32 0, i32 0
  store float %6, ptr %8, align 1, !tbaa !12
  ret void
}

; Function Attrs: alwaysinline nounwind uwtable
define available_externally void @_mm_storel_epi64(ptr noundef %0, <2 x i64> noundef %1) #2 {
  %3 = alloca ptr, align 8
  %4 = alloca <2 x i64>, align 16
  store ptr %0, ptr %3, align 8, !tbaa !3
  store <2 x i64> %1, ptr %4, align 16, !tbaa !12
  %5 = load <2 x i64>, ptr %4, align 16, !tbaa !12
  %6 = extractelement <2 x i64> %5, i32 0
  %7 = load ptr, ptr %3, align 8, !tbaa !3
  %8 = getelementptr inbounds nuw %struct.__mm_storel_epi64_struct, ptr %7, i32 0, i32 0
  store i64 %6, ptr %8, align 1, !tbaa !12
  ret void
}

; Function Attrs: alwaysinline nounwind uwtable
define available_externally void @_mm_storeu_ps(ptr noundef %0, <4 x float> noundef %1) #2 {
  %3 = alloca ptr, align 8
  %4 = alloca <4 x float>, align 16
  store ptr %0, ptr %3, align 8, !tbaa !21
  store <4 x float> %1, ptr %4, align 16, !tbaa !12
  %5 = load <4 x float>, ptr %4, align 16, !tbaa !12
  %6 = load ptr, ptr %3, align 8, !tbaa !21
  %7 = getelementptr inbounds nuw %struct.__storeu_ps, ptr %6, i32 0, i32 0
  store <4 x float> %5, ptr %7, align 1, !tbaa !12
  ret void
}

; Function Attrs: alwaysinline nounwind uwtable
define available_externally <4 x float> @_mm_load_ss(ptr noundef %0) #2 {
  %2 = alloca ptr, align 8
  %3 = alloca float, align 4
  %4 = alloca <4 x float>, align 16
  store ptr %0, ptr %2, align 8, !tbaa !21
  call void @llvm.lifetime.start.p0(i64 4, ptr %3) #12
  %5 = load ptr, ptr %2, align 8, !tbaa !21
  %6 = getelementptr inbounds nuw %struct.__mm_load_ss_struct, ptr %5, i32 0, i32 0
  %7 = load float, ptr %6, align 1, !tbaa !12
  store float %7, ptr %3, align 4, !tbaa !29
  %8 = load float, ptr %3, align 4, !tbaa !29
  %9 = insertelement <4 x float> poison, float %8, i32 0
  %10 = insertelement <4 x float> %9, float 0.000000e+00, i32 1
  %11 = insertelement <4 x float> %10, float 0.000000e+00, i32 2
  %12 = insertelement <4 x float> %11, float 0.000000e+00, i32 3
  store <4 x float> %12, ptr %4, align 16, !tbaa !12
  %13 = load <4 x float>, ptr %4, align 16, !tbaa !12
  call void @llvm.lifetime.end.p0(i64 4, ptr %3) #12
  ret <4 x float> %13
}

; Function Attrs: alwaysinline nounwind uwtable
define available_externally <4 x float> @_mm_add_ps(<4 x float> noundef %0, <4 x float> noundef %1) #2 {
  %3 = alloca <4 x float>, align 16
  %4 = alloca <4 x float>, align 16
  store <4 x float> %0, ptr %3, align 16, !tbaa !12
  store <4 x float> %1, ptr %4, align 16, !tbaa !12
  %5 = load <4 x float>, ptr %3, align 16, !tbaa !12
  %6 = load <4 x float>, ptr %4, align 16, !tbaa !12
  %7 = fadd <4 x float> %5, %6
  ret <4 x float> %7
}

; Function Attrs: alwaysinline nounwind uwtable
define available_externally <4 x float> @_mm_mul_ps(<4 x float> noundef %0, <4 x float> noundef %1) #2 {
  %3 = alloca <4 x float>, align 16
  %4 = alloca <4 x float>, align 16
  store <4 x float> %0, ptr %3, align 16, !tbaa !12
  store <4 x float> %1, ptr %4, align 16, !tbaa !12
  %5 = load <4 x float>, ptr %3, align 16, !tbaa !12
  %6 = load <4 x float>, ptr %4, align 16, !tbaa !12
  %7 = fmul <4 x float> %5, %6
  ret <4 x float> %7
}

; Function Attrs: alwaysinline nounwind uwtable
define available_externally <4 x float> @_mm_castsi128_ps(<2 x i64> noundef %0) #2 {
  %2 = alloca <2 x i64>, align 16
  store <2 x i64> %0, ptr %2, align 16, !tbaa !12
  %3 = load <2 x i64>, ptr %2, align 16, !tbaa !12
  %4 = bitcast <2 x i64> %3 to <4 x float>
  ret <4 x float> %4
}

; Function Attrs: alwaysinline nounwind uwtable
define available_externally <2 x i64> @_mm_castps_si128(<4 x float> noundef %0) #2 {
  %2 = alloca <4 x float>, align 16
  store <4 x float> %0, ptr %2, align 16, !tbaa !12
  %3 = load <4 x float>, ptr %2, align 16, !tbaa !12
  %4 = bitcast <4 x float> %3 to <2 x i64>
  ret <2 x i64> %4
}

; Function Attrs: alwaysinline nounwind uwtable
define available_externally <4 x float> @_mm_loadu_ps(ptr noundef %0) #2 {
  %2 = alloca ptr, align 8
  store ptr %0, ptr %2, align 8, !tbaa !21
  %3 = load ptr, ptr %2, align 8, !tbaa !21
  %4 = getelementptr inbounds nuw %struct.__loadu_ps, ptr %3, i32 0, i32 0
  %5 = load <4 x float>, ptr %4, align 1, !tbaa !12
  ret <4 x float> %5
}

; Function Attrs: nounwind uwtable
define void @stbir__horizontal_gather_3_channels_with_9_coeffs(ptr noundef %0, i32 noundef %1, ptr noundef %2, ptr noundef %3, ptr noundef %4, i32 noundef %5) #0 {
  %7 = alloca ptr, align 8
  %8 = alloca i32, align 4
  %9 = alloca ptr, align 8
  %10 = alloca ptr, align 8
  %11 = alloca ptr, align 8
  %12 = alloca i32, align 4
  %13 = alloca ptr, align 8
  %14 = alloca ptr, align 8
  %15 = alloca ptr, align 8
  %16 = alloca ptr, align 8
  %17 = alloca <4 x float>, align 16
  %18 = alloca <4 x float>, align 16
  %19 = alloca <4 x float>, align 16
  %20 = alloca <4 x float>, align 16
  %21 = alloca <4 x float>, align 16
  %22 = alloca i32, align 4
  store ptr %0, ptr %7, align 8, !tbaa !21
  store i32 %1, ptr %8, align 4, !tbaa !26
  store ptr %2, ptr %9, align 8, !tbaa !21
  store ptr %3, ptr %10, align 8, !tbaa !3
  store ptr %4, ptr %11, align 8, !tbaa !21
  store i32 %5, ptr %12, align 4, !tbaa !26
  call void @llvm.lifetime.start.p0(i64 8, ptr %13) #12
  %23 = load ptr, ptr %7, align 8, !tbaa !21
  %24 = load i32, ptr %8, align 4, !tbaa !26
  %25 = mul i32 %24, 3
  %26 = zext i32 %25 to i64
  %27 = getelementptr inbounds nuw float, ptr %23, i64 %26
  store ptr %27, ptr %13, align 8, !tbaa !21
  call void @llvm.lifetime.start.p0(i64 8, ptr %14) #12
  %28 = load ptr, ptr %7, align 8, !tbaa !21
  store ptr %28, ptr %14, align 8, !tbaa !21
  br label %29

29:                                               ; preds = %198, %6
  call void @llvm.lifetime.start.p0(i64 8, ptr %15) #12
  %30 = load ptr, ptr %9, align 8, !tbaa !21
  %31 = load ptr, ptr %10, align 8, !tbaa !3
  %32 = getelementptr inbounds nuw %struct.stbir__contributors, ptr %31, i32 0, i32 0
  %33 = load i32, ptr %32, align 4, !tbaa !41
  %34 = mul nsw i32 %33, 3
  %35 = sext i32 %34 to i64
  %36 = getelementptr inbounds float, ptr %30, i64 %35
  store ptr %36, ptr %15, align 8, !tbaa !21
  call void @llvm.lifetime.start.p0(i64 8, ptr %16) #12
  %37 = load ptr, ptr %11, align 8, !tbaa !21
  store ptr %37, ptr %16, align 8, !tbaa !21
  call void @llvm.lifetime.start.p0(i64 16, ptr %17) #12
  call void @llvm.lifetime.start.p0(i64 16, ptr %18) #12
  call void @llvm.lifetime.start.p0(i64 16, ptr %19) #12
  call void @llvm.lifetime.start.p0(i64 16, ptr %20) #12
  call void @llvm.lifetime.start.p0(i64 16, ptr %21) #12
  %38 = load ptr, ptr %15, align 8, !tbaa !21
  call void asm sideeffect "", "r,~{dirflag},~{fpsr},~{flags}"(ptr %38) #12, !srcloc !651
  %39 = load ptr, ptr %16, align 8, !tbaa !21
  %40 = call <4 x float> @_mm_loadu_ps(ptr noundef %39)
  store <4 x float> %40, ptr %21, align 16, !tbaa !12
  %41 = load <4 x float>, ptr %21, align 16, !tbaa !12
  %42 = call <2 x i64> @_mm_castps_si128(<4 x float> noundef %41)
  %43 = bitcast <2 x i64> %42 to <4 x i32>
  %44 = shufflevector <4 x i32> %43, <4 x i32> poison, <4 x i32> <i32 0, i32 0, i32 0, i32 1>
  %45 = bitcast <4 x i32> %44 to <2 x i64>
  %46 = call <4 x float> @_mm_castsi128_ps(<2 x i64> noundef %45)
  store <4 x float> %46, ptr %20, align 16, !tbaa !12
  %47 = load <4 x float>, ptr %20, align 16, !tbaa !12
  %48 = load ptr, ptr %15, align 8, !tbaa !21
  %49 = call <4 x float> @_mm_loadu_ps(ptr noundef %48)
  %50 = call <4 x float> @_mm_mul_ps(<4 x float> noundef %47, <4 x float> noundef %49)
  store <4 x float> %50, ptr %17, align 16, !tbaa !12
  %51 = load <4 x float>, ptr %21, align 16, !tbaa !12
  %52 = call <2 x i64> @_mm_castps_si128(<4 x float> noundef %51)
  %53 = bitcast <2 x i64> %52 to <4 x i32>
  %54 = shufflevector <4 x i32> %53, <4 x i32> poison, <4 x i32> <i32 1, i32 1, i32 2, i32 2>
  %55 = bitcast <4 x i32> %54 to <2 x i64>
  %56 = call <4 x float> @_mm_castsi128_ps(<2 x i64> noundef %55)
  store <4 x float> %56, ptr %20, align 16, !tbaa !12
  %57 = load <4 x float>, ptr %20, align 16, !tbaa !12
  %58 = load ptr, ptr %15, align 8, !tbaa !21
  %59 = getelementptr inbounds float, ptr %58, i64 4
  %60 = call <4 x float> @_mm_loadu_ps(ptr noundef %59)
  %61 = call <4 x float> @_mm_mul_ps(<4 x float> noundef %57, <4 x float> noundef %60)
  store <4 x float> %61, ptr %18, align 16, !tbaa !12
  %62 = load <4 x float>, ptr %21, align 16, !tbaa !12
  %63 = call <2 x i64> @_mm_castps_si128(<4 x float> noundef %62)
  %64 = bitcast <2 x i64> %63 to <4 x i32>
  %65 = shufflevector <4 x i32> %64, <4 x i32> poison, <4 x i32> <i32 2, i32 3, i32 3, i32 3>
  %66 = bitcast <4 x i32> %65 to <2 x i64>
  %67 = call <4 x float> @_mm_castsi128_ps(<2 x i64> noundef %66)
  store <4 x float> %67, ptr %20, align 16, !tbaa !12
  %68 = load <4 x float>, ptr %20, align 16, !tbaa !12
  %69 = load ptr, ptr %15, align 8, !tbaa !21
  %70 = getelementptr inbounds float, ptr %69, i64 8
  %71 = call <4 x float> @_mm_loadu_ps(ptr noundef %70)
  %72 = call <4 x float> @_mm_mul_ps(<4 x float> noundef %68, <4 x float> noundef %71)
  store <4 x float> %72, ptr %19, align 16, !tbaa !12
  %73 = load ptr, ptr %15, align 8, !tbaa !21
  call void asm sideeffect "", "r,~{dirflag},~{fpsr},~{flags}"(ptr %73) #12, !srcloc !652
  %74 = load ptr, ptr %16, align 8, !tbaa !21
  %75 = getelementptr inbounds float, ptr %74, i64 4
  %76 = call <4 x float> @_mm_loadu_ps(ptr noundef %75)
  store <4 x float> %76, ptr %21, align 16, !tbaa !12
  %77 = load <4 x float>, ptr %21, align 16, !tbaa !12
  %78 = call <2 x i64> @_mm_castps_si128(<4 x float> noundef %77)
  %79 = bitcast <2 x i64> %78 to <4 x i32>
  %80 = shufflevector <4 x i32> %79, <4 x i32> poison, <4 x i32> <i32 0, i32 0, i32 0, i32 1>
  %81 = bitcast <4 x i32> %80 to <2 x i64>
  %82 = call <4 x float> @_mm_castsi128_ps(<2 x i64> noundef %81)
  store <4 x float> %82, ptr %20, align 16, !tbaa !12
  %83 = load <4 x float>, ptr %17, align 16, !tbaa !12
  %84 = load <4 x float>, ptr %20, align 16, !tbaa !12
  %85 = load ptr, ptr %15, align 8, !tbaa !21
  %86 = getelementptr inbounds float, ptr %85, i64 12
  %87 = call <4 x float> @_mm_loadu_ps(ptr noundef %86)
  %88 = call <4 x float> @_mm_mul_ps(<4 x float> noundef %84, <4 x float> noundef %87)
  %89 = call <4 x float> @_mm_add_ps(<4 x float> noundef %83, <4 x float> noundef %88)
  store <4 x float> %89, ptr %17, align 16, !tbaa !12
  %90 = load <4 x float>, ptr %21, align 16, !tbaa !12
  %91 = call <2 x i64> @_mm_castps_si128(<4 x float> noundef %90)
  %92 = bitcast <2 x i64> %91 to <4 x i32>
  %93 = shufflevector <4 x i32> %92, <4 x i32> poison, <4 x i32> <i32 1, i32 1, i32 2, i32 2>
  %94 = bitcast <4 x i32> %93 to <2 x i64>
  %95 = call <4 x float> @_mm_castsi128_ps(<2 x i64> noundef %94)
  store <4 x float> %95, ptr %20, align 16, !tbaa !12
  %96 = load <4 x float>, ptr %18, align 16, !tbaa !12
  %97 = load <4 x float>, ptr %20, align 16, !tbaa !12
  %98 = load ptr, ptr %15, align 8, !tbaa !21
  %99 = getelementptr inbounds float, ptr %98, i64 12
  %100 = getelementptr inbounds float, ptr %99, i64 4
  %101 = call <4 x float> @_mm_loadu_ps(ptr noundef %100)
  %102 = call <4 x float> @_mm_mul_ps(<4 x float> noundef %97, <4 x float> noundef %101)
  %103 = call <4 x float> @_mm_add_ps(<4 x float> noundef %96, <4 x float> noundef %102)
  store <4 x float> %103, ptr %18, align 16, !tbaa !12
  %104 = load <4 x float>, ptr %21, align 16, !tbaa !12
  %105 = call <2 x i64> @_mm_castps_si128(<4 x float> noundef %104)
  %106 = bitcast <2 x i64> %105 to <4 x i32>
  %107 = shufflevector <4 x i32> %106, <4 x i32> poison, <4 x i32> <i32 2, i32 3, i32 3, i32 3>
  %108 = bitcast <4 x i32> %107 to <2 x i64>
  %109 = call <4 x float> @_mm_castsi128_ps(<2 x i64> noundef %108)
  store <4 x float> %109, ptr %20, align 16, !tbaa !12
  %110 = load <4 x float>, ptr %19, align 16, !tbaa !12
  %111 = load <4 x float>, ptr %20, align 16, !tbaa !12
  %112 = load ptr, ptr %15, align 8, !tbaa !21
  %113 = getelementptr inbounds float, ptr %112, i64 12
  %114 = getelementptr inbounds float, ptr %113, i64 8
  %115 = call <4 x float> @_mm_loadu_ps(ptr noundef %114)
  %116 = call <4 x float> @_mm_mul_ps(<4 x float> noundef %111, <4 x float> noundef %115)
  %117 = call <4 x float> @_mm_add_ps(<4 x float> noundef %110, <4 x float> noundef %116)
  store <4 x float> %117, ptr %19, align 16, !tbaa !12
  %118 = load ptr, ptr %15, align 8, !tbaa !21
  call void asm sideeffect "", "r,~{dirflag},~{fpsr},~{flags}"(ptr %118) #12, !srcloc !653
  %119 = load ptr, ptr %16, align 8, !tbaa !21
  %120 = getelementptr inbounds float, ptr %119, i64 8
  %121 = call <4 x float> @_mm_load_ss(ptr noundef %120)
  store <4 x float> %121, ptr %20, align 16, !tbaa !12
  %122 = load <4 x float>, ptr %20, align 16, !tbaa !12
  %123 = call <2 x i64> @_mm_castps_si128(<4 x float> noundef %122)
  %124 = bitcast <2 x i64> %123 to <4 x i32>
  %125 = shufflevector <4 x i32> %124, <4 x i32> poison, <4 x i32> <i32 0, i32 0, i32 0, i32 1>
  %126 = bitcast <4 x i32> %125 to <2 x i64>
  %127 = call <4 x float> @_mm_castsi128_ps(<2 x i64> noundef %126)
  store <4 x float> %127, ptr %20, align 16, !tbaa !12
  %128 = load <4 x float>, ptr %17, align 16, !tbaa !12
  %129 = load <4 x float>, ptr %20, align 16, !tbaa !12
  %130 = load ptr, ptr %15, align 8, !tbaa !21
  %131 = getelementptr inbounds float, ptr %130, i64 24
  %132 = call <4 x float> @_mm_loadu_ps(ptr noundef %131)
  %133 = call <4 x float> @_mm_mul_ps(<4 x float> noundef %129, <4 x float> noundef %132)
  %134 = call <4 x float> @_mm_add_ps(<4 x float> noundef %128, <4 x float> noundef %133)
  store <4 x float> %134, ptr %17, align 16, !tbaa !12
  %135 = load <4 x float>, ptr %18, align 16, !tbaa !12
  %136 = load <4 x float>, ptr %17, align 16, !tbaa !12
  %137 = shufflevector <4 x float> %135, <4 x float> %136, <4 x i32> <i32 0, i32 1, i32 6, i32 7>
  %138 = call <2 x i64> @_mm_castps_si128(<4 x float> noundef %137)
  %139 = bitcast <2 x i64> %138 to <4 x i32>
  %140 = shufflevector <4 x i32> %139, <4 x i32> poison, <4 x i32> <i32 3, i32 0, i32 1, i32 2>
  %141 = bitcast <4 x i32> %140 to <2 x i64>
  %142 = call <4 x float> @_mm_castsi128_ps(<2 x i64> noundef %141)
  store <4 x float> %142, ptr %20, align 16, !tbaa !12
  %143 = load <4 x float>, ptr %19, align 16, !tbaa !12
  %144 = load <4 x float>, ptr %18, align 16, !tbaa !12
  %145 = shufflevector <4 x float> %143, <4 x float> %144, <4 x i32> <i32 0, i32 1, i32 6, i32 7>
  %146 = call <2 x i64> @_mm_castps_si128(<4 x float> noundef %145)
  %147 = bitcast <2 x i64> %146 to <4 x i32>
  %148 = shufflevector <4 x i32> %147, <4 x i32> poison, <4 x i32> <i32 2, i32 3, i32 0, i32 1>
  %149 = bitcast <4 x i32> %148 to <2 x i64>
  %150 = call <4 x float> @_mm_castsi128_ps(<2 x i64> noundef %149)
  store <4 x float> %150, ptr %21, align 16, !tbaa !12
  %151 = load <4 x float>, ptr %19, align 16, !tbaa !12
  %152 = call <2 x i64> @_mm_castps_si128(<4 x float> noundef %151)
  %153 = bitcast <2 x i64> %152 to <4 x i32>
  %154 = shufflevector <4 x i32> %153, <4 x i32> poison, <4 x i32> <i32 1, i32 2, i32 3, i32 0>
  %155 = bitcast <4 x i32> %154 to <2 x i64>
  %156 = call <4 x float> @_mm_castsi128_ps(<2 x i64> noundef %155)
  store <4 x float> %156, ptr %19, align 16, !tbaa !12
  %157 = load <4 x float>, ptr %17, align 16, !tbaa !12
  %158 = load <4 x float>, ptr %21, align 16, !tbaa !12
  %159 = call <4 x float> @_mm_add_ps(<4 x float> noundef %157, <4 x float> noundef %158)
  store <4 x float> %159, ptr %17, align 16, !tbaa !12
  %160 = load <4 x float>, ptr %20, align 16, !tbaa !12
  %161 = load <4 x float>, ptr %19, align 16, !tbaa !12
  %162 = call <4 x float> @_mm_add_ps(<4 x float> noundef %160, <4 x float> noundef %161)
  store <4 x float> %162, ptr %20, align 16, !tbaa !12
  %163 = load <4 x float>, ptr %17, align 16, !tbaa !12
  %164 = load <4 x float>, ptr %20, align 16, !tbaa !12
  %165 = call <4 x float> @_mm_add_ps(<4 x float> noundef %163, <4 x float> noundef %164)
  store <4 x float> %165, ptr %17, align 16, !tbaa !12
  %166 = load i32, ptr %12, align 4, !tbaa !26
  %167 = load ptr, ptr %11, align 8, !tbaa !21
  %168 = sext i32 %166 to i64
  %169 = getelementptr inbounds float, ptr %167, i64 %168
  store ptr %169, ptr %11, align 8, !tbaa !21
  %170 = load ptr, ptr %10, align 8, !tbaa !3
  %171 = getelementptr inbounds nuw %struct.stbir__contributors, ptr %170, i32 1
  store ptr %171, ptr %10, align 8, !tbaa !3
  %172 = load ptr, ptr %14, align 8, !tbaa !21
  %173 = getelementptr inbounds float, ptr %172, i64 3
  store ptr %173, ptr %14, align 8, !tbaa !21
  %174 = load ptr, ptr %14, align 8, !tbaa !21
  %175 = load ptr, ptr %13, align 8, !tbaa !21
  %176 = icmp ult ptr %174, %175
  br i1 %176, label %177, label %181

177:                                              ; preds = %29
  %178 = load ptr, ptr %14, align 8, !tbaa !21
  %179 = getelementptr inbounds float, ptr %178, i64 -3
  %180 = load <4 x float>, ptr %17, align 16, !tbaa !12
  call void @_mm_storeu_ps(ptr noundef %179, <4 x float> noundef %180)
  store i32 3, ptr %22, align 4
  br label %196

181:                                              ; preds = %29
  %182 = load <4 x float>, ptr %17, align 16, !tbaa !12
  %183 = call <2 x i64> @_mm_castps_si128(<4 x float> noundef %182)
  %184 = bitcast <2 x i64> %183 to <4 x i32>
  %185 = shufflevector <4 x i32> %184, <4 x i32> poison, <4 x i32> <i32 2, i32 3, i32 0, i32 1>
  %186 = bitcast <4 x i32> %185 to <2 x i64>
  %187 = call <4 x float> @_mm_castsi128_ps(<2 x i64> noundef %186)
  store <4 x float> %187, ptr %18, align 16, !tbaa !12
  %188 = load ptr, ptr %14, align 8, !tbaa !21
  %189 = getelementptr inbounds float, ptr %188, i64 -3
  %190 = load <4 x float>, ptr %17, align 16, !tbaa !12
  %191 = call <2 x i64> @_mm_castps_si128(<4 x float> noundef %190)
  call void @_mm_storel_epi64(ptr noundef %189, <2 x i64> noundef %191)
  %192 = load ptr, ptr %14, align 8, !tbaa !21
  %193 = getelementptr inbounds float, ptr %192, i64 2
  %194 = getelementptr inbounds float, ptr %193, i64 -3
  %195 = load <4 x float>, ptr %18, align 16, !tbaa !12
  call void @_mm_store_ss(ptr noundef %194, <4 x float> noundef %195)
  store i32 2, ptr %22, align 4
  br label %196

196:                                              ; preds = %181, %177
  call void @llvm.lifetime.end.p0(i64 16, ptr %21) #12
  call void @llvm.lifetime.end.p0(i64 16, ptr %20) #12
  call void @llvm.lifetime.end.p0(i64 16, ptr %19) #12
  call void @llvm.lifetime.end.p0(i64 16, ptr %18) #12
  call void @llvm.lifetime.end.p0(i64 16, ptr %17) #12
  call void @llvm.lifetime.end.p0(i64 8, ptr %16) #12
  call void @llvm.lifetime.end.p0(i64 8, ptr %15) #12
  %197 = load i32, ptr %22, align 4
  switch i32 %197, label %203 [
    i32 3, label %198
    i32 2, label %202
  ]

198:                                              ; preds = %196
  %199 = load ptr, ptr %14, align 8, !tbaa !21
  %200 = load ptr, ptr %13, align 8, !tbaa !21
  %201 = icmp ult ptr %199, %200
  br i1 %201, label %29, label %202, !llvm.loop !654

202:                                              ; preds = %198, %196
  call void @llvm.lifetime.end.p0(i64 8, ptr %14) #12
  call void @llvm.lifetime.end.p0(i64 8, ptr %13) #12
  ret void

203:                                              ; preds = %196
  unreachable
}