; Function Attrs: nounwind uwtable
define void @stbir__horizontal_gather_3_channels_with_9_coeffs(ptr noundef writeonly captures(address) %0, i32 noundef %1, ptr noundef %2, ptr noundef readonly captures(none) %3, ptr noundef readonly captures(none) %4, i32 noundef %5) #0 {
  %7 = mul i32 %1, 3
  %8 = zext i32 %7 to i64
  %9 = getelementptr inbounds nuw float, ptr %0, i64 %8
  %10 = sext i32 %5 to i64
  br label %11

11:                                               ; preds = %65, %6
  %.065 = phi ptr [ %0, %6 ], [ %59, %65 ]
  %.064 = phi ptr [ %4, %6 ], [ %67, %65 ]
  %.063 = phi ptr [ %3, %6 ], [ %66, %65 ]
  %12 = load i32, ptr %.063, align 4, !tbaa !34
  %13 = mul nsw i32 %12, 3
  %14 = sext i32 %13 to i64
  %15 = getelementptr inbounds float, ptr %2, i64 %14
  tail call void asm sideeffect "", "r,~{dirflag},~{fpsr},~{flags}"(ptr %15) #24, !srcloc !570
  %16 = load <4 x float>, ptr %.064, align 1, !tbaa !4
  %17 = shufflevector <4 x float> %16, <4 x float> poison, <4 x i32> <i32 0, i32 0, i32 0, i32 1>
  %18 = load <4 x float>, ptr %15, align 1, !tbaa !4
  %19 = fmul <4 x float> %18, %17
  %20 = shufflevector <4 x float> %16, <4 x float> poison, <4 x i32> <i32 1, i32 1, i32 2, i32 2>
  %21 = getelementptr inbounds nuw i8, ptr %15, i64 16
  %22 = load <4 x float>, ptr %21, align 1, !tbaa !4
  %23 = fmul <4 x float> %20, %22
  %24 = shufflevector <4 x float> %16, <4 x float> poison, <4 x i32> <i32 2, i32 3, i32 3, i32 3>
  %25 = getelementptr inbounds nuw i8, ptr %15, i64 32
  %26 = load <4 x float>, ptr %25, align 1, !tbaa !4
  %27 = fmul <4 x float> %24, %26
  tail call void asm sideeffect "", "r,~{dirflag},~{fpsr},~{flags}"(ptr nonnull %15) #24, !srcloc !571
  %28 = getelementptr inbounds nuw i8, ptr %.064, i64 16
  %29 = load <4 x float>, ptr %28, align 1, !tbaa !4
  %30 = shufflevector <4 x float> %29, <4 x float> poison, <4 x i32> <i32 0, i32 0, i32 0, i32 1>
  %31 = getelementptr inbounds nuw i8, ptr %15, i64 48
  %32 = load <4 x float>, ptr %31, align 1, !tbaa !4
  %33 = fmul <4 x float> %32, %30
  %34 = fadd <4 x float> %19, %33
  %35 = shufflevector <4 x float> %29, <4 x float> poison, <4 x i32> <i32 1, i32 1, i32 2, i32 2>
  %36 = getelementptr inbounds nuw i8, ptr %15, i64 64
  %37 = load <4 x float>, ptr %36, align 1, !tbaa !4
  %38 = fmul <4 x float> %35, %37
  %39 = fadd <4 x float> %23, %38
  %40 = shufflevector <4 x float> %29, <4 x float> poison, <4 x i32> <i32 2, i32 3, i32 3, i32 3>
  %41 = getelementptr inbounds nuw i8, ptr %15, i64 80
  %42 = load <4 x float>, ptr %41, align 1, !tbaa !4
  %43 = fmul <4 x float> %40, %42
  %44 = fadd <4 x float> %27, %43
  tail call void asm sideeffect "", "r,~{dirflag},~{fpsr},~{flags}"(ptr nonnull %15) #24, !srcloc !572
  %45 = getelementptr inbounds nuw i8, ptr %.064, i64 32
  %46 = load float, ptr %45, align 1, !tbaa !4
  %47 = insertelement <4 x float> <float poison, float 0.000000e+00, float poison, float poison>, float %46, i64 0
  %48 = shufflevector <4 x float> %47, <4 x float> poison, <4 x i32> <i32 0, i32 0, i32 0, i32 1>
  %49 = getelementptr inbounds nuw i8, ptr %15, i64 96
  %50 = load <4 x float>, ptr %49, align 1, !tbaa !4
  %51 = fmul <4 x float> %50, %48
  %52 = fadd <4 x float> %34, %51
  %53 = shufflevector <4 x float> %52, <4 x float> %39, <4 x i32> <i32 3, i32 4, i32 5, i32 2>
  %54 = shufflevector <4 x float> %39, <4 x float> %44, <4 x i32> <i32 2, i32 3, i32 4, i32 5>
  %55 = shufflevector <4 x float> %44, <4 x float> poison, <4 x i32> <i32 1, i32 2, i32 3, i32 0>
  %56 = fadd <4 x float> %54, %52
  %57 = fadd <4 x float> %55, %53
  %58 = fadd <4 x float> %56, %57
  %59 = getelementptr inbounds nuw i8, ptr %.065, i64 12
  %60 = icmp ult ptr %59, %9
  br i1 %60, label %65, label %.thread

.thread:                                          ; preds = %11
  %61 = bitcast <4 x float> %58 to <2 x i64>
  %62 = extractelement <2 x i64> %61, i64 0
  store i64 %62, ptr %.065, align 1, !tbaa !4
  %63 = getelementptr inbounds nuw i8, ptr %.065, i64 8
  %64 = extractelement <4 x float> %58, i64 2
  store float %64, ptr %63, align 1, !tbaa !4
  ret void

65:                                               ; preds = %11
  %66 = getelementptr inbounds nuw i8, ptr %.063, i64 8
  %67 = getelementptr inbounds float, ptr %.064, i64 %10
  store <4 x float> %58, ptr %.065, align 1, !tbaa !4
  br label %11
}